; ModuleID = 'source-C-CXX/33/2739.c'
source_filename = "source-C-CXX/33/2739.c"
target datalayout = "e-m:e-p270:32:32-p271:32:32-p272:64:64-i64:64-f80:128-n8:16:32:64-S128"
target triple = "x86_64-pc-linux-gnu"

@.str = private unnamed_addr constant [3 x i8] c"%d\00", align 1
@.str.1 = private unnamed_addr constant [9 x i8] c"%d/2=%d\0A\00", align 1
@.str.2 = private unnamed_addr constant [11 x i8] c"%d*3+1=%d\0A\00", align 1
@.str.3 = private unnamed_addr constant [4 x i8] c"End\00", align 1

; Function Attrs: nofree nounwind sspstrong uwtable
define dso_local i32 @main() local_unnamed_addr #0 {
  %1 = alloca i32, align 4
  %2 = bitcast i32* %1 to i8*
  call void @llvm.lifetime.start.p0i8(i64 4, i8* nonnull %2) #3
  %3 = call i32 (i8*, ...) @__isoc99_scanf(i8* getelementptr inbounds ([3 x i8], [3 x i8]* @.str, i64 0, i64 0), i32* nonnull %1)
  %4 = load i32, i32* %1, align 4, !tbaa !5
  br label %5

5:                                                ; preds = %25, %0
  %6 = phi i32 [ %26, %25 ], [ %4, %0 ]
  %7 = and i32 %6, 1
  %8 = icmp eq i32 %7, 0
  %9 = icmp ne i32 %6, 1
  %10 = and i1 %9, %8
  br i1 %10, label %11, label %15

11:                                               ; preds = %5
  %12 = sdiv i32 %6, 2
  %13 = call i32 (i8*, ...) @printf(i8* nonnull dereferenceable(1) getelementptr inbounds ([9 x i8], [9 x i8]* @.str.1, i64 0, i64 0), i32 %6, i32 %12)
  store i32 %12, i32* %1, align 4, !tbaa !5
  %14 = and i32 %12, 1
  br label %15

15:                                               ; preds = %11, %5
  %16 = phi i32 [ %14, %11 ], [ %7, %5 ]
  %17 = phi i32 [ %12, %11 ], [ %6, %5 ]
  %18 = icmp ne i32 %16, 0
  %19 = icmp ne i32 %17, 1
  %20 = and i1 %19, %18
  br i1 %20, label %21, label %25

21:                                               ; preds = %15
  %22 = mul nsw i32 %17, 3
  %23 = add nsw i32 %22, 1
  %24 = call i32 (i8*, ...) @printf(i8* nonnull dereferenceable(1) getelementptr inbounds ([11 x i8], [11 x i8]* @.str.2, i64 0, i64 0), i32 %17, i32 %23)
  store i32 %23, i32* %1, align 4, !tbaa !5
  br label %25

25:                                               ; preds = %21, %15
  %26 = phi i32 [ %23, %21 ], [ %17, %15 ]
  %27 = icmp eq i32 %26, 1
  br i1 %27, label %28, label %5

28:                                               ; preds = %25
  %29 = call i32 (i8*, ...) @printf(i8* nonnull dereferenceable(1) getelementptr inbounds ([4 x i8], [4 x i8]* @.str.3, i64 0, i64 0))
  call void @llvm.lifetime.end.p0i8(i64 4, i8* nonnull %2) #3
  ret i32 0
}

; Function Attrs: argmemonly mustprogress nofree nosync nounwind willreturn
declare void @llvm.lifetime.start.p0i8(i64 immarg, i8* nocapture) #1

; Function Attrs: nofree nounwind
declare noundef i32 @__isoc99_scanf(i8* nocapture noundef readonly, ...) local_unnamed_addr #2

; Function Attrs: nofree nounwind
declare noundef i32 @printf(i8* nocapture noundef readonly, ...) local_unnamed_addr #2

; Function Attrs: argmemonly mustprogress nofree nosync nounwind willreturn
declare void @llvm.lifetime.end.p0i8(i64 immarg, i8* nocapture) #1


!llvm.module.flags = !{!0, !1, !2, !3}
!llvm.ident = !{!4}

!0 = !{i32 1, !"wchar_size", i32 4}
!1 = !{i32 7, !"PIC Level", i32 2}
!2 = !{i32 7, !"PIE Level", i32 2}
!3 = !{i32 7, !"uwtable", i32 1}
!4 = !{!"clang version 13.0.0"}
!5 = !{!6, !6, i64 0}
!6 = !{!"int", !7, i64 0}
!7 = !{!"omnipotent char", !8, i64 0}
!8 = !{!"Simple C/C++ TBAA"}
